target datalayout = "e-m:e-p270:32:32-p271:32:32-p272:64:64-i64:64-i128:128-f80:128-n8:16:32:64-S128"
target triple = "x86_64-unknown-linux-gnu"

%"class.node::MemoryRetainer" = type { ptr }
%"class.std::__shared_count" = type { ptr }
%"class.node::crypto::ManagedEVPPKey" = type { %"class.node::MemoryRetainer", %"class.std::unique_ptr.313", %"class.std::shared_ptr.321" }
%"class.std::unique_ptr.313" = type { %"struct.std::__uniq_ptr_data.314" }
%"struct.std::__uniq_ptr_data.314" = type { %"class.std::__uniq_ptr_impl.315" }
%"class.std::__uniq_ptr_impl.315" = type { %"class.std::tuple.316" }
%"class.std::tuple.316" = type { %"struct.std::_Tuple_impl.317" }
%"struct.std::_Tuple_impl.317" = type { %"struct.std::_Head_base.320" }
%"struct.std::_Head_base.320" = type { ptr }
%"class.std::shared_ptr.321" = type { %"class.std::__shared_ptr.322" }
%"class.std::__shared_ptr.322" = type { ptr, %"class.std::__shared_count" }
%"class.node::crypto::ByteSource" = type { ptr, ptr, i64 }
%"struct.node::crypto::SignConfiguration" = type { %"class.node::MemoryRetainer", i32, i32, %"class.node::crypto::ManagedEVPPKey", %"class.node::crypto::ByteSource", %"class.node::crypto::ByteSource", ptr, i32, i32, i32, i32 }

; Function Attrs: mustprogress nounwind uwtable
define linkonce_odr dso_local void @_ZN4node14MemoryRetainerC2Ev(ptr noundef nonnull align 8 dereferenceable(8) %this) unnamed_addr #4 comdat align 2 {
entry:
  %this.addr = alloca ptr, align 8
  store ptr %this, ptr %this.addr, align 8
  %this1 = load ptr, ptr %this.addr, align 8
  store ptr getelementptr inbounds ({ [10 x ptr] }, ptr @_ZTVN4node14MemoryRetainerE, i32 0, i32 0, i32 2), ptr %this1, align 8
  ret void
}

; Function Attrs: mustprogress nounwind uwtable
define dso_local void @_ZN4node6crypto17SignConfigurationC2EOS1_(ptr noundef nonnull align 8 dereferenceable(120) %this, ptr noundef nonnull align 8 dereferenceable(120) %other) unnamed_addr #4 align 2 {
entry:
  %this.addr = alloca ptr, align 8
  %other.addr = alloca ptr, align 8
  store ptr %this, ptr %this.addr, align 8
  store ptr %other, ptr %other.addr, align 8
  %this1 = load ptr, ptr %this.addr, align 8
  call void @_ZN4node14MemoryRetainerC2Ev(ptr noundef nonnull align 8 dereferenceable(8) %this1) #3
  store ptr getelementptr inbounds ({ [10 x ptr] }, ptr @_ZTVN4node6crypto17SignConfigurationE, i32 0, i32 0, i32 2), ptr %this1, align 8
  %job_mode = getelementptr inbounds %"struct.node::crypto::SignConfiguration", ptr %this1, i32 0, i32 1
  %0 = load ptr, ptr %other.addr, align 8
  %job_mode2 = getelementptr inbounds %"struct.node::crypto::SignConfiguration", ptr %0, i32 0, i32 1
  %1 = load i32, ptr %job_mode2, align 8
  store i32 %1, ptr %job_mode, align 8
  %mode = getelementptr inbounds %"struct.node::crypto::SignConfiguration", ptr %this1, i32 0, i32 2
  %2 = load ptr, ptr %other.addr, align 8
  %mode3 = getelementptr inbounds %"struct.node::crypto::SignConfiguration", ptr %2, i32 0, i32 2
  %3 = load i32, ptr %mode3, align 4
  store i32 %3, ptr %mode, align 4
  %key = getelementptr inbounds %"struct.node::crypto::SignConfiguration", ptr %this1, i32 0, i32 3
  %4 = load ptr, ptr %other.addr, align 8
  %key4 = getelementptr inbounds %"struct.node::crypto::SignConfiguration", ptr %4, i32 0, i32 3
  call void @_ZN4node6crypto14ManagedEVPPKeyC1ERKS1_(ptr noundef nonnull align 8 dereferenceable(32) %key, ptr noundef nonnull align 8 dereferenceable(32) %key4)
  %data = getelementptr inbounds %"struct.node::crypto::SignConfiguration", ptr %this1, i32 0, i32 4
  %5 = load ptr, ptr %other.addr, align 8
  %data5 = getelementptr inbounds %"struct.node::crypto::SignConfiguration", ptr %5, i32 0, i32 4
  call void @_ZN4node6crypto10ByteSourceC1EOS1_(ptr noundef nonnull align 8 dereferenceable(24) %data, ptr noundef nonnull align 8 dereferenceable(24) %data5) #3
  %signature = getelementptr inbounds %"struct.node::crypto::SignConfiguration", ptr %this1, i32 0, i32 5
  %6 = load ptr, ptr %other.addr, align 8
  %signature6 = getelementptr inbounds %"struct.node::crypto::SignConfiguration", ptr %6, i32 0, i32 5
  call void @_ZN4node6crypto10ByteSourceC1EOS1_(ptr noundef nonnull align 8 dereferenceable(24) %signature, ptr noundef nonnull align 8 dereferenceable(24) %signature6) #3
  %digest = getelementptr inbounds %"struct.node::crypto::SignConfiguration", ptr %this1, i32 0, i32 6
  %7 = load ptr, ptr %other.addr, align 8
  %digest7 = getelementptr inbounds %"struct.node::crypto::SignConfiguration", ptr %7, i32 0, i32 6
  %8 = load ptr, ptr %digest7, align 8
  store ptr %8, ptr %digest, align 8
  %flags = getelementptr inbounds %"struct.node::crypto::SignConfiguration", ptr %this1, i32 0, i32 7
  %9 = load ptr, ptr %other.addr, align 8
  %flags8 = getelementptr inbounds %"struct.node::crypto::SignConfiguration", ptr %9, i32 0, i32 7
  %10 = load i32, ptr %flags8, align 8
  store i32 %10, ptr %flags, align 8
  %padding = getelementptr inbounds %"struct.node::crypto::SignConfiguration", ptr %this1, i32 0, i32 8
  %11 = load ptr, ptr %other.addr, align 8
  %padding9 = getelementptr inbounds %"struct.node::crypto::SignConfiguration", ptr %11, i32 0, i32 8
  %12 = load i32, ptr %padding9, align 4
  store i32 %12, ptr %padding, align 4
  %salt_length = getelementptr inbounds %"struct.node::crypto::SignConfiguration", ptr %this1, i32 0, i32 9
  %13 = load ptr, ptr %other.addr, align 8
  %salt_length10 = getelementptr inbounds %"struct.node::crypto::SignConfiguration", ptr %13, i32 0, i32 9
  %14 = load i32, ptr %salt_length10, align 8
  store i32 %14, ptr %salt_length, align 8
  %dsa_encoding = getelementptr inbounds %"struct.node::crypto::SignConfiguration", ptr %this1, i32 0, i32 10
  %15 = load ptr, ptr %other.addr, align 8
  %dsa_encoding11 = getelementptr inbounds %"struct.node::crypto::SignConfiguration", ptr %15, i32 0, i32 10
  %16 = load i32, ptr %dsa_encoding11, align 4
  store i32 %16, ptr %dsa_encoding, align 4
  ret void
}