; Function Attrs: mustprogress nounwind uwtable
define dso_local void @_ZN4node6crypto17SignConfigurationC2EOS1_(ptr noundef nonnull align 8 dereferenceable(120) %this, ptr noundef nonnull align 8 dereferenceable(120) %other) unnamed_addr #3 align 2 {
entry:
  store ptr getelementptr inbounds ({ [10 x ptr] }, ptr @_ZTVN4node6crypto17SignConfigurationE, i64 0, i32 0, i64 2), ptr %this, align 8
  %job_mode = getelementptr inbounds i8, ptr %this, i64 8
  %job_mode2 = getelementptr inbounds i8, ptr %other, i64 8
  %0 = load i32, ptr %job_mode2, align 8
  store i32 %0, ptr %job_mode, align 8
  %mode = getelementptr inbounds i8, ptr %this, i64 12
  %mode3 = getelementptr inbounds i8, ptr %other, i64 12
  %1 = load i32, ptr %mode3, align 4
  store i32 %1, ptr %mode, align 4
  %key = getelementptr inbounds i8, ptr %this, i64 16
  %key4 = getelementptr inbounds i8, ptr %other, i64 16
  tail call void @_ZN4node6crypto14ManagedEVPPKeyC1ERKS1_(ptr noundef nonnull align 8 dereferenceable(32) %key, ptr noundef nonnull align 8 dereferenceable(32) %key4) #21
  %data = getelementptr inbounds i8, ptr %this, i64 48
  %data5 = getelementptr inbounds i8, ptr %other, i64 48
  tail call void @_ZN4node6crypto10ByteSourceC1EOS1_(ptr noundef nonnull align 8 dereferenceable(24) %data, ptr noundef nonnull align 8 dereferenceable(24) %data5) #21
  %signature = getelementptr inbounds i8, ptr %this, i64 72
  %signature6 = getelementptr inbounds i8, ptr %other, i64 72
  tail call void @_ZN4node6crypto10ByteSourceC1EOS1_(ptr noundef nonnull align 8 dereferenceable(24) %signature, ptr noundef nonnull align 8 dereferenceable(24) %signature6) #21
  %digest = getelementptr inbounds i8, ptr %this, i64 96
  %digest7 = getelementptr inbounds i8, ptr %other, i64 96
  %2 = load ptr, ptr %digest7, align 8
  store ptr %2, ptr %digest, align 8
  %flags = getelementptr inbounds i8, ptr %this, i64 104
  %flags8 = getelementptr inbounds i8, ptr %other, i64 104
  %3 = load i32, ptr %flags8, align 8
  store i32 %3, ptr %flags, align 8
  %padding = getelementptr inbounds i8, ptr %this, i64 108
  %padding9 = getelementptr inbounds i8, ptr %other, i64 108
  %4 = load i32, ptr %padding9, align 4
  store i32 %4, ptr %padding, align 4
  %salt_length = getelementptr inbounds i8, ptr %this, i64 112
  %salt_length10 = getelementptr inbounds i8, ptr %other, i64 112
  %5 = load i32, ptr %salt_length10, align 8
  store i32 %5, ptr %salt_length, align 8
  %dsa_encoding = getelementptr inbounds i8, ptr %this, i64 116
  %dsa_encoding11 = getelementptr inbounds i8, ptr %other, i64 116
  %6 = load i32, ptr %dsa_encoding11, align 4
  store i32 %6, ptr %dsa_encoding, align 4
  ret void
}